target datalayout = "e-m:e-p270:32:32-p271:32:32-p272:64:64-i64:64-i128:128-f80:128-n8:16:32:64-S128"
target triple = "x86_64-pc-linux-gnu"

; Function Attrs: noinline nounwind uwtable
define internal ptr @serialize_wu124_(ptr noundef %0, i32 noundef %1) #9 {
  %3 = alloca ptr, align 8
  %4 = alloca i32, align 4
  store ptr %0, ptr %3, align 8, !tbaa !32
  store i32 %1, ptr %4, align 4, !tbaa !17
  %5 = load i32, ptr %4, align 4, !tbaa !17
  %6 = icmp ult i32 %5, 8160
  br i1 %6, label %7, label %20

7:                                                ; preds = %2
  %8 = load i32, ptr %4, align 4, !tbaa !17
  %9 = sub i32 %8, 224
  store i32 %9, ptr %4, align 4, !tbaa !17
  %10 = load i32, ptr %4, align 4, !tbaa !17
  %11 = lshr i32 %10, 8
  %12 = or i32 224, %11
  %13 = trunc i32 %12 to i8
  %14 = load ptr, ptr %3, align 8, !tbaa !32
  %15 = getelementptr inbounds nuw i8, ptr %14, i32 1
  store ptr %15, ptr %3, align 8, !tbaa !32
  store i8 %13, ptr %14, align 1, !tbaa !22
  %16 = load i32, ptr %4, align 4, !tbaa !17
  %17 = trunc i32 %16 to i8
  %18 = load ptr, ptr %3, align 8, !tbaa !32
  %19 = getelementptr inbounds nuw i8, ptr %18, i32 1
  store ptr %19, ptr %3, align 8, !tbaa !32
  store i8 %17, ptr %18, align 1, !tbaa !22
  br label %26

20:                                               ; preds = %2
  %21 = load ptr, ptr %3, align 8, !tbaa !32
  %22 = getelementptr inbounds nuw i8, ptr %21, i32 1
  store ptr %22, ptr %3, align 8, !tbaa !32
  store i8 -1, ptr %21, align 1, !tbaa !22
  %23 = load ptr, ptr %3, align 8, !tbaa !32
  call void @llvm.memcpy.p0.p0.i64(ptr align 1 %23, ptr align 4 %4, i64 4, i1 false)
  %24 = load ptr, ptr %3, align 8, !tbaa !32
  %25 = getelementptr inbounds i8, ptr %24, i64 4
  store ptr %25, ptr %3, align 8, !tbaa !32
  br label %26

26:                                               ; preds = %20, %7
  %27 = load ptr, ptr %3, align 8, !tbaa !32
  ret ptr %27
}