; Function Attrs: mustprogress nofree noinline norecurse nosync nounwind willreturn memory(argmem: write) uwtable
define internal fastcc nonnull ptr @serialize_wu124_(ptr noundef writeonly captures(ret: address, provenance) initializes((1, 2)) %0, i32 noundef range(i32 224, 0) %1) unnamed_addr #8 {
  %3 = icmp ult i32 %1, 8160
  br i1 %3, label %4, label %12

4:                                                ; preds = %2
  %5 = add nsw i32 %1, -224
  %6 = lshr i32 %5, 8
  %7 = trunc i32 %6 to i8
  %8 = or i8 %7, -32
  %9 = getelementptr inbounds nuw i8, ptr %0, i64 1
  %10 = trunc i32 %5 to i8
  %11 = getelementptr inbounds nuw i8, ptr %0, i64 2
  store i8 %10, ptr %9, align 1, !tbaa !14
  br label %15

12:                                               ; preds = %2
  %13 = getelementptr inbounds nuw i8, ptr %0, i64 1
  store i32 %1, ptr %13, align 1
  %14 = getelementptr inbounds nuw i8, ptr %0, i64 5
  br label %15

15:                                               ; preds = %12, %4
  %.sink = phi i8 [ %8, %4 ], [ -1, %12 ]
  %.0 = phi ptr [ %11, %4 ], [ %14, %12 ]
  store i8 %.sink, ptr %0, align 1, !tbaa !14
  ret ptr %.0
}